Certificate:
    Data:
        Version: 3 (0x2)
        Serial Number: 1 (0x1)
        Signature Algorithm: sha256WithRSAEncryption
        Issuer: C=GB, ST=Derbyshire, L=Derby, O=Mosquitto Project, OU=Testing, CN=Root CA
        Validity
            Not Before: Dec 19 14:34:14 2022 GMT
            Not After : Dec 18 14:34:14 2027 GMT
        Subject: C=GB, ST=Derbyshire, O=Mosquitto Project, OU=Testing, CN=Signing CA
        Subject Public Key Info:
            Public Key Algorithm: rsaEncryption
                Public-Key: (2048 bit)
                Modulus:
                    00:af:25:e3:1b:59:cc:ae:7b:6b:ea:0d:90:5b:3f:
                    fc:c1:a4:07:e5:16:fc:e0:2d:ad:b3:3f:b6:67:52:
                    3a:01:4c:66:7b:f1:a6:78:91:5c:f3:12:43:0a:01:
                    e0:5c:98:ec:ef:a7:1c:9e:53:fd:96:6d:2b:71:b5:
                    fb:77:73:97:cf:a9:18:b8:bc:64:65:f7:f6:3c:56:
                    8b:7f:7f:bb:b5:92:d6:78:5c:4c:7b:25:76:57:c2:
                    3d:64:e7:8f:41:cc:97:68:9f:df:2c:3f:53:a1:c0:
                    ac:54:29:2e:a4:c8:60:9b:f0:41:cb:40:ad:6a:9d:
                    d1:72:12:94:e9:48:c6:b6:54:93:1a:fb:02:64:a0:
                    99:1a:da:09:08:15:a9:f3:b1:21:7a:40:f0:bb:18:
                    c7:38:09:8c:d0:11:83:a5:1c:91:cc:b3:fb:a5:d0:
                    cc:31:ba:ee:f5:42:9e:b3:7b:2e:d6:81:17:0c:8c:
                    8d:94:c5:2c:62:23:ab:ee:bb:82:e8:0a:e2:4c:75:
                    62:cd:41:38:21:2a:73:54:9a:28:f3:62:bd:de:26:
                    09:da:ec:d6:03:d9:9c:45:cc:19:ef:24:1e:60:33:
                    08:54:eb:97:1e:54:56:06:4a:5c:fe:fa:74:79:5a:
                    5f:2e:e0:e9:96:20:cb:d6:07:57:11:5e:9e:79:40:
                    0c:85
                Exponent: 65537 (0x10001)
        X509v3 extensions:
            X509v3 Subject Key Identifier: 
                39:6A:1C:06:D3:4E:BC:5B:07:87:65:17:5F:E2:38:C2:8D:8A:27:41
            X509v3 Authority Key Identifier: 
                EA:BD:3E:00:99:01:4C:4E:C0:49:6D:0B:C5:DA:35:8D:A4:BB:07:E2
            X509v3 Basic Constraints: 
                CA:TRUE
    Signature Algorithm: sha256WithRSAEncryption
    Signature Value:
        9e:72:60:c7:80:25:b8:38:bb:82:0c:dc:c6:98:ac:0f:ad:f6:
        37:24:02:ca:d1:7b:73:99:66:e4:6e:58:62:37:b0:8a:60:bb:
        08:6f:3a:85:d5:78:35:b7:66:60:92:12:c8:88:41:1f:27:8e:
        7b:ea:68:dd:dc:d2:ac:3f:08:54:cf:93:38:2c:0e:f9:f6:09:
        6c:d7:73:22:97:8b:1e:b1:11:bc:d5:14:1e:2d:be:7f:aa:36:
        46:c5:2d:61:06:3e:51:84:d8:a5:70:1d:17:a4:6d:69:a3:44:
        2d:af:14:c9:9e:9b:fc:7a:cb:b7:0a:37:5e:80:6c:3d:ed:5c:
        84:e2:5c:4a:92:8e:5b:ab:40:56:59:8a:3e:c5:89:29:05:b3:
        93:d6:78:ad:56:82:a4:7c:ea:53:94:3f:c8:59:f4:94:fe:33:
        64:da:5d:05:4d:ab:76:dc:7c:8c:97:97:83:20:d1:25:c9:86:
        f4:b4:c8:8e:d9:b3:4b:ea:91:44:1f:5e:04:76:12:a7:95:aa:
        1e:a1:21:5f:13:f9:15:45:51:7f:38:8a:94:83:0f:70:41:11:
        47:6e:fc:f2:eb:5c:98:ec:36:70:23:73:c9:01:82:18:48:0b:
        a5:05:82:de:c1:89:4f:7f:0e:fa:01:08:43:20:3e:ab:d5:ff:
        ee:cc:86:92
-----BEGIN CERTIFICATE-----
MIIDojCCAoqgAwIBAgIBATANBgkqhkiG9w0BAQsFADByMQswCQYDVQQGEwJHQjET
MBEGA1UECAwKRGVyYnlzaGlyZTEOMAwGA1UEBwwFRGVyYnkxGjAYBgNVBAoMEU1v
c3F1aXR0byBQcm9qZWN0MRAwDgYDVQQLDAdUZXN0aW5nMRAwDgYDVQQDDAdSb290
IENBMB4XDTIyMTIxOTE0MzQxNFoXDTI3MTIxODE0MzQxNFowZTELMAkGA1UEBhMC
R0IxEzARBgNVBAgMCkRlcmJ5c2hpcmUxGjAYBgNVBAoMEU1vc3F1aXR0byBQcm9q
ZWN0MRAwDgYDVQQLDAdUZXN0aW5nMRMwEQYDVQQDDApTaWduaW5nIENBMIIBIjAN
BgkqhkiG9w0BAQEFAAOCAQ8AMIIBCgKCAQEAryXjG1nMrntr6g2QWz/8waQH5Rb8
4C2tsz+2Z1I6AUxme/GmeJFc8xJDCgHgXJjs76ccnlP9lm0rcbX7d3OXz6kYuLxk
Zff2PFaLf3+7tZLWeFxMeyV2V8I9ZOePQcyXaJ/fLD9TocCsVCkupMhgm/BBy0Ct
ap3RchKU6UjGtlSTGvsCZKCZGtoJCBWp87EhekDwuxjHOAmM0BGDpRyRzLP7pdDM
Mbru9UKes3su1oEXDIyNlMUsYiOr7ruC6AriTHVizUE4ISpzVJoo82K93iYJ2uzW
A9mcRcwZ7yQeYDMIVOuXHlRWBkpc/vp0eVpfLuDpliDL1gdXEV6eeUAMhQIDAQAB
o1AwTjAdBgNVHQ4EFgQUOWocBtNOvFsHh2UXX+I4wo2KJ0EwHwYDVR0jBBgwFoAU
6r0+AJkBTE7ASW0Lxdo1jaS7B+IwDAYDVR0TBAUwAwEB/zANBgkqhkiG9w0BAQsF
AAOCAQEAnnJgx4AluDi7ggzcxpisD632NyQCytF7c5lm5G5YYjewimC7CG86hdV4
NbdmYJISyIhBHyeOe+po3dzSrD8IVM+TOCwO+fYJbNdzIpeLHrERvNUUHi2+f6o2
RsUtYQY+UYTYpXAdF6RtaaNELa8UyZ6b/HrLtwo3XoBsPe1chOJcSpKOW6tAVlmK
PsWJKQWzk9Z4rVaCpHzqU5Q/yFn0lP4zZNpdBU2rdtx8jJeXgyDRJcmG9LTIjtmz
S+qRRB9eBHYSp5WqHqEhXxP5FUVRfziKlIMPcEERR2788utcmOw2cCNzyQGCGEgL
pQWC3sGJT38O+gEIQyA+q9X/7syGkg==
-----END CERTIFICATE-----
-----BEGIN CERTIFICATE-----
MIIDwjCCAqqgAwIBAgIUW6pyEaE2etevVs8LXBraT5UGWJcwDQYJKoZIhvcNAQEL
BQAwcjELMAkGA1UEBhMCR0IxEzARBgNVBAgMCkRlcmJ5c2hpcmUxDjAMBgNVBAcM
BURlcmJ5MRowGAYDVQQKDBFNb3NxdWl0dG8gUHJvamVjdDEQMA4GA1UECwwHVGVz
dGluZzEQMA4GA1UEAwwHUm9vdCBDQTAeFw0yMjEyMTkxNDM0MTNaFw0zMjEyMTYx
NDM0MTNaMHIxCzAJBgNVBAYTAkdCMRMwEQYDVQQIDApEZXJieXNoaXJlMQ4wDAYD
VQQHDAVEZXJieTEaMBgGA1UECgwRTW9zcXVpdHRvIFByb2plY3QxEDAOBgNVBAsM
B1Rlc3RpbmcxEDAOBgNVBAMMB1Jvb3QgQ0EwggEiMA0GCSqGSIb3DQEBAQUAA4IB
DwAwggEKAoIBAQCr8LkMCKlYL/QafZTHhMD23tgejqzrr8XugFy1Z9Ghch8I+46S
9kurJjPyos+srBp8j+iJeAd06D8GbXjp3USSVhIahvS8DM7zsTN/Quzb8xVAkWUg
wwIpimapF1vu4hkCVD52ynZ3Fwt24LM+eCZO5Tv/0sfWBOjdDNtxCC+ap03nfEEh
i9pIjnJfj8oWPvcrQuK3xbeiYw5uo3AgzDvMRQTS5EXELLqt7W6+Wz3n65wXTsIw
cqZOFNN3467cencCuqQpE/n67kfUNsOZ49VsxwdoCjiVM+6yqmgHrod9nUHX2TIX
KuOqz8jByGBSAdxr2STtzOGsrxtrBvXpHVLPAgMBAAGjUDBOMB0GA1UdDgQWBBTq
vT4AmQFMTsBJbQvF2jWNpLsH4jAfBgNVHSMEGDAWgBTqvT4AmQFMTsBJbQvF2jWN
pLsH4jAMBgNVHRMEBTADAQH/MA0GCSqGSIb3DQEBCwUAA4IBAQBlOfMTXzILvGGn
z9wjSVg5Sr9rDiTW6v8pe2bVVWfSdwQ0JKV7G5QBRuVV5GbrxpMqZw10/1bUVU+z
Rwyiqkop1m7zNOQLbJLBUOWT22QPO0hsqiERi0UyLghSaEUyR3pxKQCx0IC/R6qG
aIfwfHNRu04X8jQFnLyaqxUzhAqWHHFOh1n5ljZDzKDS53COLt465QB0RSHfoh+7
ltQY5/MKTqhKX+OOuYh06TUOgUZ0D2M8XjVYix1nEseUFbokQnXbK/T5Qte+uS1z
GNO+wNQsaYxrbO0naJOOQx6WrrVeXloxyjBV+4nI5Py9Doy/jf/c2x5XW9Q6lB4Y
FuB7Mf2O
-----END CERTIFICATE-----
