Certificate:
    Data:
        Version: 3 (0x2)
        Serial Number: 5 (0x5)
        Signature Algorithm: sha256WithRSAEncryption
        Issuer: C=GB, ST=Derbyshire, O=Mosquitto Project, OU=Testing, CN=Signing CA
        Validity
            Not Before: Aug 20 00:00:00 2012 GMT
            Not After : Aug 21 00:00:00 2012 GMT
        Subject: C=GB, ST=Nottinghamshire, L=Nottingham, O=Server, OU=Production, CN=test client expired
        Subject Public Key Info:
            Public Key Algorithm: rsaEncryption
                Public-Key: (2048 bit)
                Modulus:
                    00:cc:b6:03:55:15:88:43:98:ed:ed:81:79:4c:8b:
                    85:21:53:92:7e:06:48:be:3e:b3:3c:43:16:fb:d9:
                    c6:27:7d:9b:75:d6:58:24:95:65:0d:a4:b2:3b:17:
                    59:97:f7:10:68:b8:03:98:4f:e8:d0:62:1d:da:dd:
                    90:da:24:42:ac:34:f2:e3:be:97:3e:d4:7c:9f:a8:
                    9b:b7:e8:30:a8:d3:0b:16:47:cb:9e:e2:16:36:bb:
                    60:8d:12:6a:bf:67:72:15:02:2d:2f:cf:95:50:47:
                    a3:70:b5:4e:c5:77:dc:b2:41:66:ff:44:0b:08:ff:
                    71:30:dc:59:f4:31:70:e3:2f:29:3c:2a:09:5a:ec:
                    5d:b4:34:9b:0d:29:f2:89:e5:db:7a:a4:f2:a2:02:
                    79:d7:dd:b9:b0:c3:74:e4:c0:09:e3:75:94:67:ac:
                    aa:a8:44:8b:f6:df:c7:80:fa:0c:e2:47:d8:de:66:
                    0d:04:cc:58:d8:2e:09:eb:d4:af:94:f1:a9:59:7c:
                    ce:be:2b:fb:b1:db:6f:8e:74:3f:ed:c4:82:7c:4f:
                    33:8c:7f:1a:c6:bc:fc:0f:5a:a1:20:79:f4:55:e0:
                    b9:0a:fe:d2:2d:ad:67:6f:bb:a2:2d:48:c5:09:da:
                    ef:92:b0:db:a1:9a:a7:f7:a8:db:c2:d4:ce:bc:c7:
                    eb:e7
                Exponent: 65537 (0x10001)
        X509v3 extensions:
            X509v3 Basic Constraints: 
                CA:FALSE
            Netscape Comment: 
                OpenSSL Generated Certificate
            X509v3 Subject Key Identifier: 
                DE:23:58:B9:93:C0:10:42:8F:4A:7E:DB:5E:81:8A:79:C3:38:76:3D
            X509v3 Authority Key Identifier: 
                39:6A:1C:06:D3:4E:BC:5B:07:87:65:17:5F:E2:38:C2:8D:8A:27:41
    Signature Algorithm: sha256WithRSAEncryption
    Signature Value:
        7a:27:7f:78:85:97:b9:63:5f:6e:9d:58:6f:44:fa:e7:31:a7:
        2e:61:a5:1c:15:37:57:03:b7:9a:b6:be:55:c1:20:0a:07:8e:
        9b:cb:73:f4:b6:e7:28:8a:e3:66:92:d6:53:bc:88:70:39:88:
        ba:0a:69:e9:80:97:5a:cc:43:e8:f5:d5:67:8c:c0:10:33:21:
        6e:4d:8d:05:10:64:a4:7b:4f:f8:76:c2:fa:50:da:96:0b:35:
        36:85:c6:1d:73:36:fc:7a:f6:b4:25:47:35:90:b7:90:2f:1a:
        42:93:f5:0b:33:30:65:2a:0e:40:e5:f6:66:b3:66:96:64:de:
        e1:a6:91:35:a7:6b:d4:59:2c:e8:9e:35:12:99:b4:74:05:a4:
        97:a8:b9:31:c4:f8:bc:5d:e2:5d:3e:07:cd:ed:32:3b:dd:93:
        f5:61:f4:15:0c:7a:53:b7:44:88:f5:36:56:06:ed:11:ba:3e:
        b2:5f:f4:4d:3e:59:80:34:9e:b9:eb:df:4d:9e:b4:c8:3c:ac:
        62:5d:b0:44:37:b5:cc:12:6d:98:21:51:7e:54:71:71:94:57:
        45:78:3c:40:0b:31:bd:05:df:6b:90:73:f2:0a:ef:f3:e6:01:
        7b:1f:f1:2d:30:e8:ed:16:10:0f:44:7e:4a:9f:18:25:ed:5b:
        90:bf:8d:6d
-----BEGIN CERTIFICATE-----
MIID3DCCAsSgAwIBAgIBBTANBgkqhkiG9w0BAQsFADBlMQswCQYDVQQGEwJHQjET
MBEGA1UECAwKRGVyYnlzaGlyZTEaMBgGA1UECgwRTW9zcXVpdHRvIFByb2plY3Qx
EDAOBgNVBAsMB1Rlc3RpbmcxEzARBgNVBAMMClNpZ25pbmcgQ0EwHhcNMTIwODIw
MDAwMDAwWhcNMTIwODIxMDAwMDAwWjCBgDELMAkGA1UEBhMCR0IxGDAWBgNVBAgM
D05vdHRpbmdoYW1zaGlyZTETMBEGA1UEBwwKTm90dGluZ2hhbTEPMA0GA1UECgwG
U2VydmVyMRMwEQYDVQQLDApQcm9kdWN0aW9uMRwwGgYDVQQDDBN0ZXN0IGNsaWVu
dCBleHBpcmVkMIIBIjANBgkqhkiG9w0BAQEFAAOCAQ8AMIIBCgKCAQEAzLYDVRWI
Q5jt7YF5TIuFIVOSfgZIvj6zPEMW+9nGJ32bddZYJJVlDaSyOxdZl/cQaLgDmE/o
0GId2t2Q2iRCrDTy476XPtR8n6ibt+gwqNMLFkfLnuIWNrtgjRJqv2dyFQItL8+V
UEejcLVOxXfcskFm/0QLCP9xMNxZ9DFw4y8pPCoJWuxdtDSbDSnyieXbeqTyogJ5
1925sMN05MAJ43WUZ6yqqESL9t/HgPoM4kfY3mYNBMxY2C4J69SvlPGpWXzOviv7
sdtvjnQ/7cSCfE8zjH8axrz8D1qhIHn0VeC5Cv7SLa1nb7uiLUjFCdrvkrDboZqn
96jbwtTOvMfr5wIDAQABo3sweTAJBgNVHRMEAjAAMCwGCWCGSAGG+EIBDQQfFh1P
cGVuU1NMIEdlbmVyYXRlZCBDZXJ0aWZpY2F0ZTAdBgNVHQ4EFgQU3iNYuZPAEEKP
Sn7bXoGKecM4dj0wHwYDVR0jBBgwFoAUOWocBtNOvFsHh2UXX+I4wo2KJ0EwDQYJ
KoZIhvcNAQELBQADggEBAHonf3iFl7ljX26dWG9E+ucxpy5hpRwVN1cDt5q2vlXB
IAoHjpvLc/S25yiK42aS1lO8iHA5iLoKaemAl1rMQ+j11WeMwBAzIW5NjQUQZKR7
T/h2wvpQ2pYLNTaFxh1zNvx69rQlRzWQt5AvGkKT9QszMGUqDkDl9mazZpZk3uGm
kTWna9RZLOieNRKZtHQFpJeouTHE+Lxd4l0+B83tMjvdk/Vh9BUMelO3RIj1NlYG
7RG6PrJf9E0+WYA0nrnr302etMg8rGJdsEQ3tcwSbZghUX5UcXGUV0V4PEALMb0F
32uQc/IK7/PmAXsf8S0w6O0WEA9EfkqfGCXtW5C/jW0=
-----END CERTIFICATE-----
